; Function Attrs: mustprogress uwtable
define internal void @_ZN32pxrInternal_v0_24__pxrReserved__12_GLOBAL__N_115_PrimDataSource3GetERKNS_7TfTokenE(ptr dead_on_unwind noalias writable sret(%"class.std::shared_ptr.33") align 8 %0, ptr nocapture noundef nonnull readonly align 8 dereferenceable(32) %1, ptr noundef nonnull align 8 dereferenceable(8) %2) unnamed_addr #1 align 2 personality ptr @__gxx_personality_v0 {
  %4 = getelementptr inbounds nuw i8, ptr %1, i64 8
  %5 = load ptr, ptr %4, align 8
  %.not = icmp eq ptr %5, null
  br i1 %.not, label %6, label %7

6:                                                ; preds = %3
  tail call void @llvm.memset.p0.i64(ptr noundef nonnull align 8 dereferenceable(16) %0, i8 0, i64 16, i1 false)
  br label %29

7:                                                ; preds = %3
  %8 = getelementptr inbounds nuw i8, ptr %1, i64 24
  %9 = load ptr, ptr %8, align 8
  %10 = getelementptr inbounds nuw i8, ptr %9, i64 232
  %11 = load i8, ptr %10, align 8
  %12 = trunc i8 %11 to i1
  br i1 %12, label %13, label %25

13:                                               ; preds = %7
  %14 = getelementptr inbounds nuw i8, ptr %9, i64 176
  %15 = load ptr, ptr %2, align 8
  %16 = ptrtoint ptr %15 to i64
  %17 = and i64 %16, -8
  %18 = inttoptr i64 %17 to ptr
  %19 = load ptr, ptr %14, align 8
  %20 = ptrtoint ptr %19 to i64
  %21 = and i64 %20, -8
  %22 = inttoptr i64 %21 to ptr
  %23 = icmp eq ptr %18, %22
  br i1 %23, label %24, label %25

24:                                               ; preds = %13
  tail call void @llvm.memset.p0.i64(ptr noundef nonnull align 8 dereferenceable(16) %0, i8 0, i64 16, i1 false)
  br label %29

25:                                               ; preds = %13, %7
  %26 = load ptr, ptr %5, align 8
  %27 = getelementptr inbounds i8, ptr %26, i64 24
  %28 = load ptr, ptr %27, align 8
  tail call void %28(ptr dead_on_unwind writable sret(%"class.std::shared_ptr.33") align 8 %0, ptr noundef nonnull align 8 dereferenceable(8) %5, ptr noundef nonnull align 8 dereferenceable(8) %2)
  br label %29

29:                                               ; preds = %25, %24, %6
  ret void
}